Certificate:
    Data:
        Version: 1 (0x0)
        Serial Number:
            7c:13:f8:fd:80:51:1b:0d:e8:db:14:2d:48:7b:a8:80:b4:ab:4c:2f
        Signature Algorithm: NULL
        Issuer: CN = dbhost.apkpsipb.vka
        Validity
            Not Before: Feb 19 06:32:28 2020 GMT
            Not After : Feb 16 06:32:28 2030 GMT
        Subject: CN = dbhost.apkpsipb.vka
        Subject Public Key Info:
            Public Key Algorithm: rsaEncryption
                RSA Public-Key: (2048 bit)
                Modulus:
                    00:d4:1d:e3:b4:b3:79:00:d3:b6:5d:8c:0f:42:b0:
                    b7:8e:6d:34:8c:04:97:b5:90:be:d4:fa:f7:d9:65:
                    a4:e0:9b:05:c1:4e:db:7c:0e:bb:23:39:d4:84:c9:
                    86:1a:f6:ad:16:45:7c:74:d0:50:72:40:fe:98:46:
                    ba:9c:de:0a:6a:6d:9e:78:ad:b2:96:b1:3a:7a:78:
                    1e:fc:7a:38:63:8f:36:9c:5d:0d:00:e7:a8:35:f1:
                    13:ab:0a:1c:ed:cf:d8:93:56:97:0f:bb:c7:91:34:
                    3a:29:a9:69:d3:94:09:53:71:80:a6:54:e6:81:df:
                    58:5a:78:99:bd:35:25:db:72:ad:ea:47:b8:d2:85:
                    75:52:94:0a:83:cc:1f:dd:93:5a:d1:70:c9:98:28:
                    22:21:e7:a8:bc:1d:48:e9:a7:02:9c:54:ee:59:05:
                    04:62:10:71:99:90:15:ea:5e:25:61:97:d8:ce:24:
                    44:f9:bd:a5:b8:bc:c6:e2:39:01:78:74:2a:5f:6c:
                    e7:56:aa:a2:2f:88:5f:5d:73:a4:84:9c:cd:3c:40:
                    77:de:cf:52:21:10:e6:77:4a:39:27:76:a6:51:82:
                    dc:06:47:85:70:2c:30:b5:77:30:75:5a:ca:4c:13:
                    91:8c:23:8f:5c:53:9a:a0:16:c7:86:53:3a:20:85:
                    29:7f
                Exponent: 65537 (0x10001)
    Signature Algorithm: NULL
-----BEGIN CERTIFICATE-----
MIICwTCCAakCFBHgDd4rUdp6FP+3DOfUrq1AKbhRMA0GCSqGSIb3DQEBCwUAMBwx
GjAYBgNVBAMMEXJvb3QuYXBrcHNpcGIudmthMB4XDTIwMDIxOTA2MzIyOFoXDTMw
MDIxNjA2MzIyOFowHjEcMBoGA1UEAwwTZGJob3N0LmFwa3BzaXBiLnZrYTCCASIw
DQYJKoZIhvcNAQEBBQADggEPADCCAQoCggEBANQd47SzeQDTtl2MD0Kwt45tNIwE
l7WQvtT699llpOCbBcFO23wOuyM51ITJhhr2rRZFfHTQUHJA/phGupzeCmptnnit
spaxOnp4Hvx6OGOPNpxdDQDnqDXxE6sKHO3P2JNWlw+7x5E0OimpadOUCVNxgKZU
5oHfWFp4mb01JdtyrepHuNKFdVKUCoPMH92TWtFwyZgoIiHnqLwdSOmnApxU7lkF
BGIQcZmQFepeJWGX2M4kRPm9pbi8xuI5AXh0Kl9s51aqoi+IX11zpISczTxAd97P
UiEQ5ndKOSd2plGC3AZHhXAsMLV3MHVaykwTkYwjj1xTmqAWx4ZTOiCFKX8CAwEA
ATANBgkqhkiG9w0BAQsFAAOCAQEASp3E6oezcd1OInSF1XMuwcz1/GJN6bJvM6Jg
LVt087UIG3qdfbLJ0WjP1KgVcTijbBBdVjVi+efyZOiGVEekyK/8M2t9By9JfQRM
b+pTVNsD3hNM4wnGiv0wYajWd1xvFjfOIdcym6mPlxbZCJ2lI3gHtV99EUkVUuF6
AOhzDYz60epPKnQkC5TpY+K7vAh+PFQFtt7vGW4/Pt7G/g/AlRdM/3AUdlNI7rTA
ySeSBZ0Jg3JgS54IjwyX+io4tyIRPTiPx6hdPGApqrZs01d0CPF3bazv18sfsfjJ
hxeW+CZ7sCrMpnDeIjh+PLotwYE7yllKVI8Pm0HH1Fq2Agoavw==
-----END CERTIFICATE-----
